target datalayout = "e-m:e-p270:32:32-p271:32:32-p272:64:64-i64:64-i128:128-f80:128-n8:16:32:64-S128"
target triple = "x86_64-pc-linux-gnu"

@hf_aem_stream_format = internal global i32 0, align 4
@hf_aem_sf_version = internal global i32 0, align 4
@hf_aem_sf_subtype = internal global i32 0, align 4
@hf_aem_sf = internal global i32 0, align 4
@hf_aem_iidc_format = internal global i32 0, align 4
@hf_aem_iidc_mode = internal global i32 0, align 4
@hf_aem_iidc_rate = internal global i32 0, align 4
@hf_aem_fmt = internal global i32 0, align 4
@hf_aem_fdf_evt = internal global i32 0, align 4
@hf_aem_fdf_sfc = internal global i32 0, align 4
@hf_aem_dbs = internal global i32 0, align 4
@hf_aem_b_flag = internal global i32 0, align 4
@hf_aem_nb_flag = internal global i32 0, align 4
@hf_aem_label_iec_60958_cnt = internal global i32 0, align 4
@hf_aem_label_mbla_cnt = internal global i32 0, align 4
@hf_aem_label_midi_cnt = internal global i32 0, align 4
@hf_aem_label_smpte_cnt = internal global i32 0, align 4
@hf_aem_video_mode = internal global i32 0, align 4
@hf_aem_compress_mode = internal global i32 0, align 4
@hf_aem_color_space = internal global i32 0, align 4
@ett_aem_stream_format = internal global i32 0, align 4

; Function Attrs: null_pointer_is_valid sspstrong uwtable
define internal void @dissect_17221_stream_format(ptr noundef %0, ptr noundef %1) #0 {
  %3 = alloca ptr, align 8
  %4 = alloca ptr, align 8
  %5 = alloca ptr, align 8
  %6 = alloca ptr, align 8
  %7 = alloca i8, align 1
  %8 = alloca i8, align 1
  %9 = alloca i8, align 1
  %10 = alloca i8, align 1
  %11 = alloca i8, align 1
  store ptr %0, ptr %3, align 8
  store ptr %1, ptr %4, align 8
  call void @llvm.lifetime.start.p0(i64 8, ptr %5) #5
  call void @llvm.lifetime.start.p0(i64 8, ptr %6) #5
  call void @llvm.lifetime.start.p0(i64 1, ptr %7) #5
  call void @llvm.lifetime.start.p0(i64 1, ptr %8) #5
  call void @llvm.lifetime.start.p0(i64 1, ptr %9) #5
  call void @llvm.lifetime.start.p0(i64 1, ptr %10) #5
  call void @llvm.lifetime.start.p0(i64 1, ptr %11) #5
  %12 = load ptr, ptr %4, align 8
  %13 = load i32, ptr @hf_aem_stream_format, align 4
  %14 = load ptr, ptr %3, align 8
  %15 = call ptr @proto_tree_add_item(ptr noundef %12, i32 noundef %13, ptr noundef %14, i32 noundef 0, i32 noundef 8, i32 noundef 0)
  store ptr %15, ptr %6, align 8
  %16 = load ptr, ptr %6, align 8
  %17 = load i32, ptr @ett_aem_stream_format, align 4
  %18 = call ptr @proto_item_add_subtree(ptr noundef %16, i32 noundef %17)
  store ptr %18, ptr %5, align 8
  %19 = load ptr, ptr %3, align 8
  %20 = call zeroext i8 @tvb_get_uint8(ptr noundef %19, i32 noundef 0)
  %21 = zext i8 %20 to i32
  %22 = and i32 %21, 128
  %23 = trunc i32 %22 to i8
  store i8 %23, ptr %7, align 1
  %24 = load ptr, ptr %5, align 8
  %25 = load i32, ptr @hf_aem_sf_version, align 4
  %26 = load ptr, ptr %3, align 8
  %27 = call ptr @proto_tree_add_item(ptr noundef %24, i32 noundef %25, ptr noundef %26, i32 noundef 0, i32 noundef 1, i32 noundef 0)
  %28 = load i8, ptr %7, align 1
  %29 = zext i8 %28 to i32
  %30 = icmp eq i32 %29, 0
  br i1 %30, label %31, label %151

31:                                               ; preds = %2
  %32 = load ptr, ptr %3, align 8
  %33 = call zeroext i8 @tvb_get_uint8(ptr noundef %32, i32 noundef 0)
  %34 = zext i8 %33 to i32
  %35 = and i32 %34, 127
  %36 = trunc i32 %35 to i8
  store i8 %36, ptr %8, align 1
  %37 = load ptr, ptr %5, align 8
  %38 = load i32, ptr @hf_aem_sf_subtype, align 4
  %39 = load ptr, ptr %3, align 8
  %40 = call ptr @proto_tree_add_item(ptr noundef %37, i32 noundef %38, ptr noundef %39, i32 noundef 0, i32 noundef 1, i32 noundef 0)
  %41 = load i8, ptr %8, align 1
  %42 = zext i8 %41 to i32
  switch i32 %42, label %149 [
    i32 0, label %43
    i32 1, label %150
    i32 2, label %150
    i32 3, label %150
    i32 127, label %150
  ]

43:                                               ; preds = %31
  %44 = load ptr, ptr %3, align 8
  %45 = call zeroext i8 @tvb_get_uint8(ptr noundef %44, i32 noundef 1)
  %46 = zext i8 %45 to i32
  %47 = and i32 %46, 128
  %48 = trunc i32 %47 to i8
  store i8 %48, ptr %9, align 1
  %49 = load ptr, ptr %5, align 8
  %50 = load i32, ptr @hf_aem_sf, align 4
  %51 = load ptr, ptr %3, align 8
  %52 = call ptr @proto_tree_add_item(ptr noundef %49, i32 noundef %50, ptr noundef %51, i32 noundef 1, i32 noundef 1, i32 noundef 0)
  %53 = load i8, ptr %9, align 1
  %54 = zext i8 %53 to i32
  %55 = icmp eq i32 %54, 0
  br i1 %55, label %56, label %69

56:                                               ; preds = %43
  %57 = load ptr, ptr %5, align 8
  %58 = load i32, ptr @hf_aem_iidc_format, align 4
  %59 = load ptr, ptr %3, align 8
  %60 = call ptr @proto_tree_add_item(ptr noundef %57, i32 noundef %58, ptr noundef %59, i32 noundef 5, i32 noundef 1, i32 noundef 0)
  %61 = load ptr, ptr %5, align 8
  %62 = load i32, ptr @hf_aem_iidc_mode, align 4
  %63 = load ptr, ptr %3, align 8
  %64 = call ptr @proto_tree_add_item(ptr noundef %61, i32 noundef %62, ptr noundef %63, i32 noundef 6, i32 noundef 1, i32 noundef 0)
  %65 = load ptr, ptr %5, align 8
  %66 = load i32, ptr @hf_aem_iidc_rate, align 4
  %67 = load ptr, ptr %3, align 8
  %68 = call ptr @proto_tree_add_item(ptr noundef %65, i32 noundef %66, ptr noundef %67, i32 noundef 7, i32 noundef 1, i32 noundef 0)
  br label %148

69:                                               ; preds = %43
  %70 = load ptr, ptr %5, align 8
  %71 = load i32, ptr @hf_aem_fmt, align 4
  %72 = load ptr, ptr %3, align 8
  %73 = call ptr @proto_tree_add_item(ptr noundef %70, i32 noundef %71, ptr noundef %72, i32 noundef 1, i32 noundef 1, i32 noundef 0)
  %74 = load ptr, ptr %3, align 8
  %75 = call zeroext i8 @tvb_get_uint8(ptr noundef %74, i32 noundef 1)
  %76 = zext i8 %75 to i32
  %77 = and i32 %76, 127
  %78 = trunc i32 %77 to i8
  store i8 %78, ptr %10, align 1
  %79 = load i8, ptr %10, align 1
  %80 = zext i8 %79 to i32
  %81 = icmp eq i32 %80, 32
  br i1 %81, label %82, label %129

82:                                               ; preds = %69
  %83 = load ptr, ptr %5, align 8
  %84 = load i32, ptr @hf_aem_fdf_evt, align 4
  %85 = load ptr, ptr %3, align 8
  %86 = call ptr @proto_tree_add_item(ptr noundef %83, i32 noundef %84, ptr noundef %85, i32 noundef 2, i32 noundef 1, i32 noundef 0)
  %87 = load ptr, ptr %5, align 8
  %88 = load i32, ptr @hf_aem_fdf_sfc, align 4
  %89 = load ptr, ptr %3, align 8
  %90 = call ptr @proto_tree_add_item(ptr noundef %87, i32 noundef %88, ptr noundef %89, i32 noundef 2, i32 noundef 1, i32 noundef 0)
  %91 = load ptr, ptr %5, align 8
  %92 = load i32, ptr @hf_aem_dbs, align 4
  %93 = load ptr, ptr %3, align 8
  %94 = call ptr @proto_tree_add_item(ptr noundef %91, i32 noundef %92, ptr noundef %93, i32 noundef 3, i32 noundef 1, i32 noundef 0)
  %95 = load ptr, ptr %3, align 8
  %96 = call zeroext i8 @tvb_get_uint8(ptr noundef %95, i32 noundef 2)
  %97 = zext i8 %96 to i32
  %98 = and i32 %97, 248
  %99 = trunc i32 %98 to i8
  store i8 %99, ptr %11, align 1
  %100 = load ptr, ptr %5, align 8
  %101 = load i32, ptr @hf_aem_b_flag, align 4
  %102 = load ptr, ptr %3, align 8
  %103 = call ptr @proto_tree_add_item(ptr noundef %100, i32 noundef %101, ptr noundef %102, i32 noundef 4, i32 noundef 1, i32 noundef 0)
  %104 = load ptr, ptr %5, align 8
  %105 = load i32, ptr @hf_aem_nb_flag, align 4
  %106 = load ptr, ptr %3, align 8
  %107 = call ptr @proto_tree_add_item(ptr noundef %104, i32 noundef %105, ptr noundef %106, i32 noundef 4, i32 noundef 1, i32 noundef 0)
  %108 = load i8, ptr %11, align 1
  %109 = zext i8 %108 to i32
  %110 = icmp eq i32 %109, 0
  br i1 %110, label %111, label %128

111:                                              ; preds = %82
  %112 = load ptr, ptr %5, align 8
  %113 = load i32, ptr @hf_aem_label_iec_60958_cnt, align 4
  %114 = load ptr, ptr %3, align 8
  %115 = call ptr @proto_tree_add_item(ptr noundef %112, i32 noundef %113, ptr noundef %114, i32 noundef 5, i32 noundef 1, i32 noundef 0)
  %116 = load ptr, ptr %5, align 8
  %117 = load i32, ptr @hf_aem_label_mbla_cnt, align 4
  %118 = load ptr, ptr %3, align 8
  %119 = call ptr @proto_tree_add_item(ptr noundef %116, i32 noundef %117, ptr noundef %118, i32 noundef 6, i32 noundef 1, i32 noundef 0)
  %120 = load ptr, ptr %5, align 8
  %121 = load i32, ptr @hf_aem_label_midi_cnt, align 4
  %122 = load ptr, ptr %3, align 8
  %123 = call ptr @proto_tree_add_item(ptr noundef %120, i32 noundef %121, ptr noundef %122, i32 noundef 7, i32 noundef 1, i32 noundef 0)
  %124 = load ptr, ptr %5, align 8
  %125 = load i32, ptr @hf_aem_label_smpte_cnt, align 4
  %126 = load ptr, ptr %3, align 8
  %127 = call ptr @proto_tree_add_item(ptr noundef %124, i32 noundef %125, ptr noundef %126, i32 noundef 7, i32 noundef 1, i32 noundef 0)
  br label %128

128:                                              ; preds = %111, %82
  br label %147

129:                                              ; preds = %69
  %130 = load i8, ptr %10, align 1
  %131 = zext i8 %130 to i32
  %132 = icmp eq i32 %131, 1
  br i1 %132, label %133, label %146

133:                                              ; preds = %129
  %134 = load ptr, ptr %5, align 8
  %135 = load i32, ptr @hf_aem_video_mode, align 4
  %136 = load ptr, ptr %3, align 8
  %137 = call ptr @proto_tree_add_item(ptr noundef %134, i32 noundef %135, ptr noundef %136, i32 noundef 5, i32 noundef 1, i32 noundef 0)
  %138 = load ptr, ptr %5, align 8
  %139 = load i32, ptr @hf_aem_compress_mode, align 4
  %140 = load ptr, ptr %3, align 8
  %141 = call ptr @proto_tree_add_item(ptr noundef %138, i32 noundef %139, ptr noundef %140, i32 noundef 6, i32 noundef 1, i32 noundef 0)
  %142 = load ptr, ptr %5, align 8
  %143 = load i32, ptr @hf_aem_color_space, align 4
  %144 = load ptr, ptr %3, align 8
  %145 = call ptr @proto_tree_add_item(ptr noundef %142, i32 noundef %143, ptr noundef %144, i32 noundef 7, i32 noundef 1, i32 noundef 0)
  br label %146

146:                                              ; preds = %133, %129
  br label %147

147:                                              ; preds = %146, %128
  br label %148

148:                                              ; preds = %147, %56
  br label %150

149:                                              ; preds = %31
  br label %150

150:                                              ; preds = %149, %31, %31, %31, %31, %148
  br label %151

151:                                              ; preds = %150, %2
  call void @llvm.lifetime.end.p0(i64 1, ptr %11) #5
  call void @llvm.lifetime.end.p0(i64 1, ptr %10) #5
  call void @llvm.lifetime.end.p0(i64 1, ptr %9) #5
  call void @llvm.lifetime.end.p0(i64 1, ptr %8) #5
  call void @llvm.lifetime.end.p0(i64 1, ptr %7) #5
  call void @llvm.lifetime.end.p0(i64 8, ptr %6) #5
  call void @llvm.lifetime.end.p0(i64 8, ptr %5) #5
  ret void
}