; Function Attrs: null_pointer_is_valid sspstrong uwtable
define internal fastcc void @dissect_17221_stream_format(ptr noundef %0, ptr noundef %1) unnamed_addr #0 {
  %3 = load i32, ptr @hf_aem_stream_format, align 4
  %4 = tail call ptr @proto_tree_add_item(ptr noundef %1, i32 noundef %3, ptr noundef %0, i32 noundef 0, i32 noundef 8, i32 noundef 0)
  %5 = load i32, ptr @ett_aem_stream_format, align 4
  %6 = tail call ptr @proto_item_add_subtree(ptr noundef %4, i32 noundef %5)
  %7 = tail call zeroext i8 @tvb_get_uint8(ptr noundef %0, i32 noundef 0)
  %8 = load i32, ptr @hf_aem_sf_version, align 4
  %9 = tail call ptr @proto_tree_add_item(ptr noundef %6, i32 noundef %8, ptr noundef %0, i32 noundef 0, i32 noundef 1, i32 noundef 0)
  %10 = icmp sgt i8 %7, -1
  br i1 %10, label %11, label %48

11:                                               ; preds = %2
  %12 = tail call zeroext i8 @tvb_get_uint8(ptr noundef %0, i32 noundef 0)
  %13 = and i8 %12, 127
  %14 = load i32, ptr @hf_aem_sf_subtype, align 4
  %15 = tail call ptr @proto_tree_add_item(ptr noundef %6, i32 noundef %14, ptr noundef %0, i32 noundef 0, i32 noundef 1, i32 noundef 0)
  %cond = icmp eq i8 %13, 0
  br i1 %cond, label %16, label %48

16:                                               ; preds = %11
  %17 = tail call zeroext i8 @tvb_get_uint8(ptr noundef %0, i32 noundef 1)
  %18 = load i32, ptr @hf_aem_sf, align 4
  %19 = tail call ptr @proto_tree_add_item(ptr noundef %6, i32 noundef %18, ptr noundef %0, i32 noundef 1, i32 noundef 1, i32 noundef 0)
  %20 = icmp sgt i8 %17, -1
  br i1 %20, label %.sink.split, label %21

21:                                               ; preds = %16
  %22 = load i32, ptr @hf_aem_fmt, align 4
  %23 = tail call ptr @proto_tree_add_item(ptr noundef %6, i32 noundef %22, ptr noundef %0, i32 noundef 1, i32 noundef 1, i32 noundef 0)
  %24 = tail call zeroext i8 @tvb_get_uint8(ptr noundef %0, i32 noundef 1)
  %25 = and i8 %24, 127
  switch i8 %25, label %48 [
    i8 32, label %26
    i8 1, label %.sink.split
  ]

26:                                               ; preds = %21
  %27 = load i32, ptr @hf_aem_fdf_evt, align 4
  %28 = tail call ptr @proto_tree_add_item(ptr noundef %6, i32 noundef %27, ptr noundef %0, i32 noundef 2, i32 noundef 1, i32 noundef 0)
  %29 = load i32, ptr @hf_aem_fdf_sfc, align 4
  %30 = tail call ptr @proto_tree_add_item(ptr noundef %6, i32 noundef %29, ptr noundef %0, i32 noundef 2, i32 noundef 1, i32 noundef 0)
  %31 = load i32, ptr @hf_aem_dbs, align 4
  %32 = tail call ptr @proto_tree_add_item(ptr noundef %6, i32 noundef %31, ptr noundef %0, i32 noundef 3, i32 noundef 1, i32 noundef 0)
  %33 = tail call zeroext i8 @tvb_get_uint8(ptr noundef %0, i32 noundef 2)
  %34 = load i32, ptr @hf_aem_b_flag, align 4
  %35 = tail call ptr @proto_tree_add_item(ptr noundef %6, i32 noundef %34, ptr noundef %0, i32 noundef 4, i32 noundef 1, i32 noundef 0)
  %36 = load i32, ptr @hf_aem_nb_flag, align 4
  %37 = tail call ptr @proto_tree_add_item(ptr noundef %6, i32 noundef %36, ptr noundef %0, i32 noundef 4, i32 noundef 1, i32 noundef 0)
  %38 = icmp ult i8 %33, 8
  br i1 %38, label %39, label %48

39:                                               ; preds = %26
  %40 = load i32, ptr @hf_aem_label_iec_60958_cnt, align 4
  %41 = tail call ptr @proto_tree_add_item(ptr noundef %6, i32 noundef %40, ptr noundef %0, i32 noundef 5, i32 noundef 1, i32 noundef 0)
  br label %.sink.split

.sink.split:                                      ; preds = %21, %16, %39
  %hf_aem_label_mbla_cnt.sink = phi ptr [ @hf_aem_label_mbla_cnt, %39 ], [ @hf_aem_iidc_format, %16 ], [ @hf_aem_video_mode, %21 ]
  %.sink52 = phi i32 [ 6, %39 ], [ 5, %16 ], [ 5, %21 ]
  %hf_aem_label_midi_cnt.sink = phi ptr [ @hf_aem_label_midi_cnt, %39 ], [ @hf_aem_iidc_mode, %16 ], [ @hf_aem_compress_mode, %21 ]
  %.sink51 = phi i32 [ 7, %39 ], [ 6, %16 ], [ 6, %21 ]
  %hf_aem_label_smpte_cnt.sink = phi ptr [ @hf_aem_label_smpte_cnt, %39 ], [ @hf_aem_iidc_rate, %16 ], [ @hf_aem_color_space, %21 ]
  %42 = load i32, ptr %hf_aem_label_mbla_cnt.sink, align 4
  %43 = tail call ptr @proto_tree_add_item(ptr noundef %6, i32 noundef %42, ptr noundef %0, i32 noundef %.sink52, i32 noundef 1, i32 noundef 0)
  %44 = load i32, ptr %hf_aem_label_midi_cnt.sink, align 4
  %45 = tail call ptr @proto_tree_add_item(ptr noundef %6, i32 noundef %44, ptr noundef %0, i32 noundef %.sink51, i32 noundef 1, i32 noundef 0)
  %46 = load i32, ptr %hf_aem_label_smpte_cnt.sink, align 4
  %47 = tail call ptr @proto_tree_add_item(ptr noundef %6, i32 noundef %46, ptr noundef %0, i32 noundef 7, i32 noundef 1, i32 noundef 0)
  br label %48

48:                                               ; preds = %.sink.split, %21, %11, %26, %2
  ret void
}